target datalayout = "e-m:e-p270:32:32-p271:32:32-p272:64:64-i64:64-i128:128-f80:128-n8:16:32:64-S128"
target triple = "x86_64-pc-linux-gnu"

@.str.31 = private unnamed_addr constant [4 x i8] c"yes\00", align 1
@.str.32 = private unnamed_addr constant [3 x i8] c"no\00", align 1
@.str.34 = private unnamed_addr constant [62 x i8] c"\09-v     : toggle printing verbose information [default = %s]\0A\00", align 1
@.str.35 = private unnamed_addr constant [35 x i8] c"\09-h     : print the command usage\0A\00", align 1
@.str.78 = private unnamed_addr constant [3 x i8] c"vh\00", align 1
@.str.89 = private unnamed_addr constant [21 x i8] c"usage: @_test [-vh]\0A\00", align 1
@.str.90 = private unnamed_addr constant [48 x i8] c"\09         experiments with word-level networks\0A\00", align 1

; Function Attrs: nounwind uwtable
define internal i32 @Bac_CommandTest(ptr noundef %0, i32 noundef %1, ptr noundef %2) #0 {
  %4 = alloca i32, align 4
  %5 = alloca ptr, align 8
  %6 = alloca i32, align 4
  %7 = alloca ptr, align 8
  %8 = alloca i32, align 4
  %9 = alloca i32, align 4
  %10 = alloca i32, align 4
  store ptr %0, ptr %5, align 8, !tbaa !10
  store i32 %1, ptr %6, align 4, !tbaa !28
  store ptr %2, ptr %7, align 8, !tbaa !29
  call void @llvm.lifetime.start.p0(i64 4, ptr %8) #10
  call void @llvm.lifetime.start.p0(i64 4, ptr %9) #10
  store i32 0, ptr %9, align 4, !tbaa !28
  call void (...) @Extra_UtilGetoptReset()
  br label %11

11:                                               ; preds = %23, %3
  %12 = load i32, ptr %6, align 4, !tbaa !28
  %13 = load ptr, ptr %7, align 8, !tbaa !29
  %14 = call i32 @Extra_UtilGetopt(i32 noundef %12, ptr noundef %13, ptr noundef @.str.78)
  store i32 %14, ptr %8, align 4, !tbaa !28
  %15 = icmp ne i32 %14, -1
  br i1 %15, label %16, label %24

16:                                               ; preds = %11
  %17 = load i32, ptr %8, align 4, !tbaa !28
  switch i32 %17, label %22 [
    i32 118, label %18
    i32 104, label %21
  ]

18:                                               ; preds = %16
  %19 = load i32, ptr %9, align 4, !tbaa !28
  %20 = xor i32 %19, 1
  store i32 %20, ptr %9, align 4, !tbaa !28
  br label %23

21:                                               ; preds = %16
  br label %25

22:                                               ; preds = %16
  br label %25

23:                                               ; preds = %18
  br label %11, !llvm.loop !65

24:                                               ; preds = %11
  store i32 0, ptr %4, align 4
  store i32 1, ptr %10, align 4
  br label %29

25:                                               ; preds = %22, %21
  call void (i32, ptr, ...) @Abc_Print(i32 noundef -2, ptr noundef @.str.89)
  call void (i32, ptr, ...) @Abc_Print(i32 noundef -2, ptr noundef @.str.90)
  %26 = load i32, ptr %9, align 4, !tbaa !28
  %27 = icmp ne i32 %26, 0
  %28 = select i1 %27, ptr @.str.31, ptr @.str.32
  call void (i32, ptr, ...) @Abc_Print(i32 noundef -2, ptr noundef @.str.34, ptr noundef %28)
  call void (i32, ptr, ...) @Abc_Print(i32 noundef -2, ptr noundef @.str.35)
  store i32 1, ptr %4, align 4
  store i32 1, ptr %10, align 4
  br label %29

29:                                               ; preds = %25, %24
  call void @llvm.lifetime.end.p0(i64 4, ptr %9) #10
  call void @llvm.lifetime.end.p0(i64 4, ptr %8) #10
  %30 = load i32, ptr %4, align 4
  ret i32 %30
}