; Function Attrs: nounwind uwtable
define internal range(i32 0, 2) i32 @Bac_CommandTest(ptr readnone captures(none) %0, i32 noundef %1, ptr noundef %2) #0 {
  tail call void (...) @Extra_UtilGetoptReset() #14
  br label %4

4:                                                ; preds = %6, %3
  %.0 = phi i32 [ 0, %3 ], [ %7, %6 ]
  %5 = tail call i32 @Extra_UtilGetopt(i32 noundef %1, ptr noundef %2, ptr noundef nonnull @.str.78) #14
  switch i32 %5, label %8 [
    i32 -1, label %.loopexit
    i32 118, label %6
  ]

6:                                                ; preds = %4
  %7 = xor i32 %.0, 1
  br label %4, !llvm.loop !79

8:                                                ; preds = %4
  tail call void (i32, ptr, ...) @Abc_Print(i32 noundef -2, ptr noundef nonnull @.str.89)
  tail call void (i32, ptr, ...) @Abc_Print(i32 noundef -2, ptr noundef nonnull @.str.90)
  %.not7 = icmp eq i32 %.0, 0
  %9 = select i1 %.not7, ptr @.str.32, ptr @.str.31
  tail call void (i32, ptr, ...) @Abc_Print(i32 noundef -2, ptr noundef nonnull @.str.34, ptr noundef nonnull %9)
  tail call void (i32, ptr, ...) @Abc_Print(i32 noundef -2, ptr noundef nonnull @.str.35)
  br label %.loopexit

.loopexit:                                        ; preds = %4, %8
  %.05 = phi i32 [ 1, %8 ], [ 0, %4 ]
  ret i32 %.05
}